(lp0
(S'elfflags'
p1
ccopy_reg
_reconstructor
p2
(cino.utils
SpaceList
p3
c__builtin__
list
p4
(lp5
S'-Os'
p6
aS'-Wl,--gc-sections'
p7
aS'-mmcu=atmega328p'
p8
atp9
Rp10
tp11
a(S'version.txt'
p12
S'/Applications/Arduino.app/Contents/Resources/Java/lib/version.txt'
p13
tp14
a(S'cc'
p15
S'/Applications/Arduino.app/Contents/Resources/Java/hardware/tools/avr/bin/avr-gcc'
p16
tp17
a(S'build_dir'
p18
S'.build/uno'
p19
tp20
a(S'arduino_core_dir'
p21
S'/Applications/Arduino.app/Contents/Resources/Java/hardware/arduino/cores/arduino'
p22
tp23
a(S'boards.txt'
p24
S'/Applications/Arduino.app/Contents/Resources/Java/hardware/arduino/boards.txt'
p25
tp26
a(S'cxxflags'
p27
g2
(g3
g4
(lp28
S'-fno-exceptions'
p29
atp30
Rp31
tp32
a(S'arduino_variants_dir'
p33
S'/Applications/Arduino.app/Contents/Resources/Java/hardware/arduino/variants'
p34
tp35
a(S'deps'
p36
g2
(g3
g4
(lp37
tp38
Rp39
tp40
a(S'ar'
p41
S'/Applications/Arduino.app/Contents/Resources/Java/hardware/tools/avr/bin/avr-ar'
p42
tp43
a(S'names'
p44
(dp45
S'cpp'
p46
S'%s.cpp'
p47
sS'obj'
p48
S'%s.o'
p49
sg36
S'%s.d'
p50
sS'lib'
p51
S'lib%s.a'
p52
stp53
a(S'cflags'
p54
g2
(g3
g4
(lp55
g8
aS'-ffunction-sections'
p56
aS'-fdata-sections'
p57
aS'-g'
p58
ag6
aS'-w'
p59
aS'-DF_CPU=16000000L'
p60
aS'-DARDUINO=100'
p61
aS'-I/Applications/Arduino.app/Contents/Resources/Java/hardware/arduino/cores/arduino'
p62
aS'-I/Applications/Arduino.app/Contents/Resources/Java/hardware/arduino/variants/standard'
p63
atp64
Rp65
tp66
a(S'arduino_libraries_dir'
p67
S'/Applications/Arduino.app/Contents/Resources/Java/libraries'
p68
tp69
a(S'arduino_lib_version'
p70
g2
(cino.environment
Version
p71
c__builtin__
tuple
p72
(I1
I0
tp73
tp74
Rp75
tp76
a(S'objcopy'
p77
S'/Applications/Arduino.app/Contents/Resources/Java/hardware/tools/avr/bin/avr-objcopy'
p78
tp79
a(S'board_models'
p80
cino.environment
BoardModels
p81
((lp82
(lp83
S'uno'
p84
a(dp85
S'build'
p86
(dp87
S'core'
p88
S'arduino'
p89
sS'mcu'
p90
S'atmega328p'
p91
sS'f_cpu'
p92
S'16000000L'
p93
sS'variant'
p94
S'standard'
p95
ssS'bootloader'
p96
(dp97
S'extended_fuses'
p98
S'0x05'
p99
sS'high_fuses'
p100
S'0xde'
p101
sS'low_fuses'
p102
S'0xff'
p103
sS'lock_bits'
p104
S'0x0F'
p105
sS'file'
p106
S'optiboot_atmega328.hex'
p107
sS'path'
p108
S'optiboot'
p109
sS'unlock_bits'
p110
S'0x3F'
p111
ssS'name'
p112
S'Arduino Uno'
p113
sS'upload'
p114
(dp115
S'speed'
p116
S'115200'
p117
sS'maximum_size'
p118
S'32256'
p119
sS'protocol'
p120
S'arduino'
p121
ssaa(lp122
S'atmega328'
p123
a(dp124
S'build'
p125
(dp126
S'core'
p127
S'arduino'
p128
sS'mcu'
p129
S'atmega328p'
p130
sS'f_cpu'
p131
S'16000000L'
p132
sS'variant'
p133
S'standard'
p134
ssS'bootloader'
p135
(dp136
S'extended_fuses'
p137
S'0x05'
p138
sS'high_fuses'
p139
S'0xDA'
p140
sS'low_fuses'
p141
S'0xFF'
p142
sS'lock_bits'
p143
S'0x0F'
p144
sS'file'
p145
S'ATmegaBOOT_168_atmega328.hex'
p146
sS'path'
p147
S'atmega'
p148
sS'unlock_bits'
p149
S'0x3F'
p150
ssS'name'
p151
S'Arduino Duemilanove w/ ATmega328'
p152
sS'upload'
p153
(dp154
S'speed'
p155
S'57600'
p156
sS'maximum_size'
p157
S'30720'
p158
sS'protocol'
p159
S'arduino'
p160
ssaa(lp161
S'diecimila'
p162
a(dp163
S'build'
p164
(dp165
S'core'
p166
S'arduino'
p167
sS'mcu'
p168
S'atmega168'
p169
sS'f_cpu'
p170
S'16000000L'
p171
sS'variant'
p172
S'standard'
p173
ssS'bootloader'
p174
(dp175
S'extended_fuses'
p176
S'0x00'
p177
sS'high_fuses'
p178
S'0xdd'
p179
sS'low_fuses'
p180
S'0xff'
p181
sS'lock_bits'
p182
S'0x0F'
p183
sS'file'
p184
S'ATmegaBOOT_168_diecimila.hex'
p185
sS'path'
p186
S'atmega'
p187
sS'unlock_bits'
p188
S'0x3F'
p189
ssS'name'
p190
S'Arduino Diecimila or Duemilanove w/ ATmega168'
p191
sS'upload'
p192
(dp193
S'speed'
p194
S'19200'
p195
sS'maximum_size'
p196
S'14336'
p197
sS'protocol'
p198
S'arduino'
p199
ssaa(lp200
S'nano328'
p201
a(dp202
S'build'
p203
(dp204
S'core'
p205
S'arduino'
p206
sS'mcu'
p207
S'atmega328p'
p208
sS'f_cpu'
p209
S'16000000L'
p210
sS'variant'
p211
S'eightanaloginputs'
p212
ssS'bootloader'
p213
(dp214
S'extended_fuses'
p215
S'0x05'
p216
sS'high_fuses'
p217
S'0xDA'
p218
sS'low_fuses'
p219
S'0xFF'
p220
sS'lock_bits'
p221
S'0x0F'
p222
sS'file'
p223
S'ATmegaBOOT_168_atmega328.hex'
p224
sS'path'
p225
S'atmega'
p226
sS'unlock_bits'
p227
S'0x3F'
p228
ssS'name'
p229
S'Arduino Nano w/ ATmega328'
p230
sS'upload'
p231
(dp232
S'speed'
p233
S'57600'
p234
sS'maximum_size'
p235
S'30720'
p236
sS'protocol'
p237
S'arduino'
p238
ssaa(lp239
S'nano'
p240
a(dp241
S'build'
p242
(dp243
S'core'
p244
S'arduino'
p245
sS'mcu'
p246
S'atmega168'
p247
sS'f_cpu'
p248
S'16000000L'
p249
sS'variant'
p250
S'eightanaloginputs'
p251
ssS'bootloader'
p252
(dp253
S'extended_fuses'
p254
S'0x00'
p255
sS'high_fuses'
p256
S'0xdd'
p257
sS'low_fuses'
p258
S'0xff'
p259
sS'lock_bits'
p260
S'0x0F'
p261
sS'file'
p262
S'ATmegaBOOT_168_diecimila.hex'
p263
sS'path'
p264
S'atmega'
p265
sS'unlock_bits'
p266
S'0x3F'
p267
ssS'name'
p268
S'Arduino Nano w/ ATmega168'
p269
sS'upload'
p270
(dp271
S'speed'
p272
S'19200'
p273
sS'maximum_size'
p274
S'14336'
p275
sS'protocol'
p276
S'arduino'
p277
ssaa(lp278
S'mega2560'
p279
a(dp280
S'build'
p281
(dp282
S'core'
p283
S'arduino'
p284
sS'mcu'
p285
S'atmega2560'
p286
sS'f_cpu'
p287
S'16000000L'
p288
sS'variant'
p289
S'mega'
p290
ssS'bootloader'
p291
(dp292
S'extended_fuses'
p293
S'0xFD'
p294
sS'high_fuses'
p295
S'0xD8'
p296
sS'low_fuses'
p297
S'0xFF'
p298
sS'lock_bits'
p299
S'0x0F'
p300
sS'file'
p301
S'stk500boot_v2_mega2560.hex'
p302
sS'path'
p303
S'stk500v2'
p304
sS'unlock_bits'
p305
S'0x3F'
p306
ssS'name'
p307
S'Arduino Mega 2560 or Mega ADK'
p308
sS'upload'
p309
(dp310
S'speed'
p311
S'115200'
p312
sS'maximum_size'
p313
S'258048'
p314
sS'protocol'
p315
S'stk500v2'
p316
ssaa(lp317
S'mega'
p318
a(dp319
S'build'
p320
(dp321
S'core'
p322
S'arduino'
p323
sS'mcu'
p324
S'atmega1280'
p325
sS'f_cpu'
p326
S'16000000L'
p327
sS'variant'
p328
S'mega'
p329
ssS'bootloader'
p330
(dp331
S'extended_fuses'
p332
S'0xF5'
p333
sS'high_fuses'
p334
S'0xDA'
p335
sS'low_fuses'
p336
S'0xFF'
p337
sS'lock_bits'
p338
S'0x0F'
p339
sS'file'
p340
S'ATmegaBOOT_168_atmega1280.hex'
p341
sS'path'
p342
S'atmega'
p343
sS'unlock_bits'
p344
S'0x3F'
p345
ssS'name'
p346
S'Arduino Mega (ATmega1280)'
p347
sS'upload'
p348
(dp349
S'speed'
p350
S'57600'
p351
sS'maximum_size'
p352
S'126976'
p353
sS'protocol'
p354
S'arduino'
p355
ssaa(lp356
S'mini328'
p357
a(dp358
S'build'
p359
(dp360
S'core'
p361
S'arduino'
p362
sS'mcu'
p363
S'atmega328p'
p364
sS'f_cpu'
p365
S'16000000L'
p366
sS'variant'
p367
S'eightanaloginputs'
p368
ssS'bootloader'
p369
(dp370
S'extended_fuses'
p371
S'0x05'
p372
sS'high_fuses'
p373
S'0xd8'
p374
sS'low_fuses'
p375
S'0xff'
p376
sS'lock_bits'
p377
S'0x0F'
p378
sS'file'
p379
S'optiboot_atmega328-Mini.hex'
p380
sS'path'
p381
S'optiboot'
p382
sS'unlock_bits'
p383
S'0x3F'
p384
ssS'name'
p385
S'Arduino Mini w/ ATmega328'
p386
sS'upload'
p387
(dp388
S'speed'
p389
S'115200'
p390
sS'maximum_size'
p391
S'28672'
p392
sS'protocol'
p393
S'stk500'
p394
ssaa(lp395
S'mini'
p396
a(dp397
S'build'
p398
(dp399
S'core'
p400
S'arduino'
p401
sS'mcu'
p402
S'atmega168'
p403
sS'f_cpu'
p404
S'16000000L'
p405
sS'variant'
p406
S'eightanaloginputs'
p407
ssS'bootloader'
p408
(dp409
S'extended_fuses'
p410
S'0x00'
p411
sS'high_fuses'
p412
S'0xdd'
p413
sS'low_fuses'
p414
S'0xff'
p415
sS'lock_bits'
p416
S'0x0F'
p417
sS'file'
p418
S'ATmegaBOOT_168_ng.hex'
p419
sS'path'
p420
S'atmega'
p421
sS'unlock_bits'
p422
S'0x3F'
p423
ssS'name'
p424
S'Arduino Mini w/ ATmega168'
p425
sS'upload'
p426
(dp427
S'speed'
p428
S'19200'
p429
sS'maximum_size'
p430
S'14336'
p431
sS'protocol'
p432
S'arduino'
p433
ssaa(lp434
S'ethernet'
p435
a(dp436
S'build'
p437
(dp438
S'f_cpu'
p439
S'16000000L'
p440
sS'mcu'
p441
S'atmega328p'
p442
sS'variant'
p443
S'standard'
p444
sS'core'
p445
S'arduino'
p446
ssS'bootloader'
p447
(dp448
S'extended_fuses'
p449
S'0x05'
p450
sS'high_fuses'
p451
S'0xde'
p452
sS'low_fuses'
p453
S'0xff'
p454
sS'lock_bits'
p455
S'0x0F'
p456
sS'file'
p457
S'optiboot_atmega328.hex'
p458
sS'path'
p459
S'optiboot'
p460
sS'unlock_bits'
p461
S'0x3F'
p462
ssS'name'
p463
S'Arduino Ethernet'
p464
sS'upload'
p465
(dp466
S'speed'
p467
S'115200'
p468
sS'maximum_size'
p469
S'32256'
p470
sS'protocol'
p471
S'arduino'
p472
ssaa(lp473
S'fio'
p474
a(dp475
S'build'
p476
(dp477
S'core'
p478
S'arduino'
p479
sS'mcu'
p480
S'atmega328p'
p481
sS'f_cpu'
p482
S'8000000L'
p483
sS'variant'
p484
S'eightanaloginputs'
p485
ssS'bootloader'
p486
(dp487
S'extended_fuses'
p488
S'0x05'
p489
sS'high_fuses'
p490
S'0xDA'
p491
sS'low_fuses'
p492
S'0xFF'
p493
sS'lock_bits'
p494
S'0x0F'
p495
sS'file'
p496
S'ATmegaBOOT_168_atmega328_pro_8MHz.hex'
p497
sS'path'
p498
S'arduino:atmega'
p499
sS'unlock_bits'
p500
S'0x3F'
p501
ssS'name'
p502
S'Arduino Fio'
p503
sS'upload'
p504
(dp505
S'speed'
p506
S'57600'
p507
sS'maximum_size'
p508
S'30720'
p509
sS'protocol'
p510
S'arduino'
p511
ssaa(lp512
S'bt328'
p513
a(dp514
S'build'
p515
(dp516
S'core'
p517
S'arduino'
p518
sS'mcu'
p519
S'atmega328p'
p520
sS'f_cpu'
p521
S'16000000L'
p522
sS'variant'
p523
S'eightanaloginputs'
p524
ssS'bootloader'
p525
(dp526
S'extended_fuses'
p527
S'0x05'
p528
sS'high_fuses'
p529
S'0xd8'
p530
sS'low_fuses'
p531
S'0xff'
p532
sS'lock_bits'
p533
S'0x0F'
p534
sS'file'
p535
S'ATmegaBOOT_168_atmega328_bt.hex'
p536
sS'path'
p537
S'bt'
p538
sS'unlock_bits'
p539
S'0x3F'
p540
ssS'name'
p541
S'Arduino BT w/ ATmega328'
p542
sS'upload'
p543
(dp544
S'speed'
p545
S'19200'
p546
sS'maximum_size'
p547
S'28672'
p548
sS'protocol'
p549
S'arduino'
p550
sS'disable_flushing'
p551
S'true'
p552
ssaa(lp553
S'bt'
p554
a(dp555
S'build'
p556
(dp557
S'core'
p558
S'arduino'
p559
sS'mcu'
p560
S'atmega168'
p561
sS'f_cpu'
p562
S'16000000L'
p563
sS'variant'
p564
S'eightanaloginputs'
p565
ssS'bootloader'
p566
(dp567
S'extended_fuses'
p568
S'0x00'
p569
sS'high_fuses'
p570
S'0xdd'
p571
sS'low_fuses'
p572
S'0xff'
p573
sS'lock_bits'
p574
S'0x0F'
p575
sS'file'
p576
S'ATmegaBOOT_168.hex'
p577
sS'path'
p578
S'bt'
p579
sS'unlock_bits'
p580
S'0x3F'
p581
ssS'name'
p582
S'Arduino BT w/ ATmega168'
p583
sS'upload'
p584
(dp585
S'speed'
p586
S'19200'
p587
sS'maximum_size'
p588
S'14336'
p589
sS'protocol'
p590
S'arduino'
p591
sS'disable_flushing'
p592
S'true'
p593
ssaa(lp594
S'lilypad328'
p595
a(dp596
S'build'
p597
(dp598
S'core'
p599
S'arduino'
p600
sS'mcu'
p601
S'atmega328p'
p602
sS'f_cpu'
p603
S'8000000L'
p604
sS'variant'
p605
S'standard'
p606
ssS'bootloader'
p607
(dp608
S'extended_fuses'
p609
S'0x05'
p610
sS'high_fuses'
p611
S'0xDA'
p612
sS'low_fuses'
p613
S'0xFF'
p614
sS'lock_bits'
p615
S'0x0F'
p616
sS'file'
p617
S'ATmegaBOOT_168_atmega328_pro_8MHz.hex'
p618
sS'path'
p619
S'atmega'
p620
sS'unlock_bits'
p621
S'0x3F'
p622
ssS'name'
p623
S'LilyPad Arduino w/ ATmega328'
p624
sS'upload'
p625
(dp626
S'speed'
p627
S'57600'
p628
sS'maximum_size'
p629
S'30720'
p630
sS'protocol'
p631
S'arduino'
p632
ssaa(lp633
S'lilypad'
p634
a(dp635
S'build'
p636
(dp637
S'core'
p638
S'arduino'
p639
sS'mcu'
p640
S'atmega168'
p641
sS'f_cpu'
p642
S'8000000L'
p643
sS'variant'
p644
S'standard'
p645
ssS'bootloader'
p646
(dp647
S'extended_fuses'
p648
S'0x00'
p649
sS'high_fuses'
p650
S'0xdd'
p651
sS'low_fuses'
p652
S'0xe2'
p653
sS'lock_bits'
p654
S'0x0F'
p655
sS'file'
p656
S'LilyPadBOOT_168.hex'
p657
sS'path'
p658
S'lilypad'
p659
sS'unlock_bits'
p660
S'0x3F'
p661
ssS'name'
p662
S'LilyPad Arduino w/ ATmega168'
p663
sS'upload'
p664
(dp665
S'speed'
p666
S'19200'
p667
sS'maximum_size'
p668
S'14336'
p669
sS'protocol'
p670
S'arduino'
p671
ssaa(lp672
S'pro5v328'
p673
a(dp674
S'build'
p675
(dp676
S'core'
p677
S'arduino'
p678
sS'mcu'
p679
S'atmega328p'
p680
sS'f_cpu'
p681
S'16000000L'
p682
sS'variant'
p683
S'standard'
p684
ssS'bootloader'
p685
(dp686
S'extended_fuses'
p687
S'0x05'
p688
sS'high_fuses'
p689
S'0xDA'
p690
sS'low_fuses'
p691
S'0xFF'
p692
sS'lock_bits'
p693
S'0x0F'
p694
sS'file'
p695
S'ATmegaBOOT_168_atmega328.hex'
p696
sS'path'
p697
S'atmega'
p698
sS'unlock_bits'
p699
S'0x3F'
p700
ssS'name'
p701
S'Arduino Pro or Pro Mini (5V, 16 MHz) w/ ATmega328'
p702
sS'upload'
p703
(dp704
S'speed'
p705
S'57600'
p706
sS'maximum_size'
p707
S'30720'
p708
sS'protocol'
p709
S'arduino'
p710
ssaa(lp711
S'pro5v'
p712
a(dp713
S'build'
p714
(dp715
S'core'
p716
S'arduino'
p717
sS'mcu'
p718
S'atmega168'
p719
sS'f_cpu'
p720
S'16000000L'
p721
sS'variant'
p722
S'standard'
p723
ssS'bootloader'
p724
(dp725
S'extended_fuses'
p726
S'0x00'
p727
sS'high_fuses'
p728
S'0xdd'
p729
sS'low_fuses'
p730
S'0xff'
p731
sS'lock_bits'
p732
S'0x0F'
p733
sS'file'
p734
S'ATmegaBOOT_168_diecimila.hex'
p735
sS'path'
p736
S'atmega'
p737
sS'unlock_bits'
p738
S'0x3F'
p739
ssS'name'
p740
S'Arduino Pro or Pro Mini (5V, 16 MHz) w/ ATmega168'
p741
sS'upload'
p742
(dp743
S'speed'
p744
S'19200'
p745
sS'maximum_size'
p746
S'14336'
p747
sS'protocol'
p748
S'arduino'
p749
ssaa(lp750
S'pro328'
p751
a(dp752
S'build'
p753
(dp754
S'core'
p755
S'arduino'
p756
sS'mcu'
p757
S'atmega328p'
p758
sS'f_cpu'
p759
S'8000000L'
p760
sS'variant'
p761
S'standard'
p762
ssS'bootloader'
p763
(dp764
S'extended_fuses'
p765
S'0x05'
p766
sS'high_fuses'
p767
S'0xDA'
p768
sS'low_fuses'
p769
S'0xFF'
p770
sS'lock_bits'
p771
S'0x0F'
p772
sS'file'
p773
S'ATmegaBOOT_168_atmega328_pro_8MHz.hex'
p774
sS'path'
p775
S'atmega'
p776
sS'unlock_bits'
p777
S'0x3F'
p778
ssS'name'
p779
S'Arduino Pro or Pro Mini (3.3V, 8 MHz) w/ ATmega328'
p780
sS'upload'
p781
(dp782
S'speed'
p783
S'57600'
p784
sS'maximum_size'
p785
S'30720'
p786
sS'protocol'
p787
S'arduino'
p788
ssaa(lp789
S'pro'
p790
a(dp791
S'build'
p792
(dp793
S'core'
p794
S'arduino'
p795
sS'mcu'
p796
S'atmega168'
p797
sS'f_cpu'
p798
S'8000000L'
p799
sS'variant'
p800
S'standard'
p801
ssS'bootloader'
p802
(dp803
S'extended_fuses'
p804
S'0x00'
p805
sS'high_fuses'
p806
S'0xdd'
p807
sS'low_fuses'
p808
S'0xc6'
p809
sS'lock_bits'
p810
S'0x0F'
p811
sS'file'
p812
S'ATmegaBOOT_168_pro_8MHz.hex'
p813
sS'path'
p814
S'atmega'
p815
sS'unlock_bits'
p816
S'0x3F'
p817
ssS'name'
p818
S'Arduino Pro or Pro Mini (3.3V, 8 MHz) w/ ATmega168'
p819
sS'upload'
p820
(dp821
S'speed'
p822
S'19200'
p823
sS'maximum_size'
p824
S'14336'
p825
sS'protocol'
p826
S'arduino'
p827
ssaa(lp828
S'atmega168'
p829
a(dp830
S'build'
p831
(dp832
S'core'
p833
S'arduino'
p834
sS'mcu'
p835
S'atmega168'
p836
sS'f_cpu'
p837
S'16000000L'
p838
sS'variant'
p839
S'standard'
p840
ssS'bootloader'
p841
(dp842
S'extended_fuses'
p843
S'0x00'
p844
sS'high_fuses'
p845
S'0xdd'
p846
sS'low_fuses'
p847
S'0xff'
p848
sS'lock_bits'
p849
S'0x0F'
p850
sS'file'
p851
S'ATmegaBOOT_168_ng.hex'
p852
sS'path'
p853
S'atmega'
p854
sS'unlock_bits'
p855
S'0x3F'
p856
ssS'name'
p857
S'Arduino NG or older w/ ATmega168'
p858
sS'upload'
p859
(dp860
S'speed'
p861
S'19200'
p862
sS'maximum_size'
p863
S'14336'
p864
sS'protocol'
p865
S'arduino'
p866
ssaa(lp867
S'atmega8'
p868
a(dp869
S'build'
p870
(dp871
S'core'
p872
S'arduino'
p873
sS'mcu'
p874
S'atmega8'
p875
sS'f_cpu'
p876
S'16000000L'
p877
sS'variant'
p878
S'standard'
p879
ssS'bootloader'
p880
(dp881
S'high_fuses'
p882
S'0xca'
p883
sS'low_fuses'
p884
S'0xdf'
p885
sS'lock_bits'
p886
S'0x0F'
p887
sS'file'
p888
S'ATmegaBOOT.hex'
p889
sS'path'
p890
S'atmega8'
p891
sS'unlock_bits'
p892
S'0x3F'
p893
ssS'name'
p894
S'Arduino NG or older w/ ATmega8'
p895
sS'upload'
p896
(dp897
S'speed'
p898
S'19200'
p899
sS'maximum_size'
p900
S'7168'
p901
sS'protocol'
p902
S'arduino'
p903
ssaatp904
Rp905
(dp906
S'default'
p907
S'uno'
p908
sbtp909
a(S'cxx'
p910
S'/Applications/Arduino.app/Contents/Resources/Java/hardware/tools/avr/bin/avr-g++'
p911
tp912
a.