(lp0
(S'elfflags'
p1
ccopy_reg
_reconstructor
p2
(cino.utils
SpaceList
p3
c__builtin__
list
p4
(lp5
S'-Os'
p6
aS'-Wl,--gc-sections'
p7
aS'-mmcu=atmega2560'
p8
atp9
Rp10
tp11
a(S'cc'
p12
S'/Applications/Arduino.app/Contents/Resources/Java/hardware/tools/avr/bin/avr-gcc'
p13
tp14
a(S'arduino_libraries_dir'
p15
S'/Applications/Arduino.app/Contents/Resources/Java/libraries'
p16
tp17
a(S'avrdude'
p18
S'/Applications/Arduino.app/Contents/Resources/Java/hardware/tools/avr/bin/avrdude'
p19
tp20
a(S'ar'
p21
S'/Applications/Arduino.app/Contents/Resources/Java/hardware/tools/avr/bin/avr-ar'
p22
tp23
a(S'names'
p24
(dp25
S'cpp'
p26
S'%s.cpp'
p27
sS'obj'
p28
S'%s.o'
p29
sS'deps'
p30
S'%s.d'
p31
sS'lib'
p32
S'lib%s.a'
p33
stp34
a(S'arduino_lib_version'
p35
g2
(cino.environment
Version
p36
c__builtin__
tuple
p37
(I1
I0
tp38
tp39
Rp40
tp41
a(S'objcopy'
p42
S'/Applications/Arduino.app/Contents/Resources/Java/hardware/tools/avr/bin/avr-objcopy'
p43
tp44
a(S'board_models'
p45
cino.environment
BoardModels
p46
((lp47
(lp48
S'uno'
p49
a(dp50
S'bootloader'
p51
(dp52
S'extended_fuses'
p53
S'0x05'
p54
sS'high_fuses'
p55
S'0xde'
p56
sS'low_fuses'
p57
S'0xff'
p58
sS'lock_bits'
p59
S'0x0F'
p60
sS'file'
p61
S'optiboot_atmega328.hex'
p62
sS'path'
p63
S'optiboot'
p64
sS'unlock_bits'
p65
S'0x3F'
p66
ssS'upload'
p67
(dp68
S'speed'
p69
S'115200'
p70
sS'maximum_size'
p71
S'32256'
p72
sS'protocol'
p73
S'arduino'
p74
ssS'name'
p75
S'Arduino Uno'
p76
sS'build'
p77
(dp78
S'core'
p79
S'arduino'
p80
sS'mcu'
p81
S'atmega328p'
p82
sS'f_cpu'
p83
S'16000000L'
p84
sS'variant'
p85
S'standard'
p86
ssaa(lp87
S'atmega328'
p88
a(dp89
S'bootloader'
p90
(dp91
S'extended_fuses'
p92
S'0x05'
p93
sS'high_fuses'
p94
S'0xDA'
p95
sS'low_fuses'
p96
S'0xFF'
p97
sS'lock_bits'
p98
S'0x0F'
p99
sS'file'
p100
S'ATmegaBOOT_168_atmega328.hex'
p101
sS'path'
p102
S'atmega'
p103
sS'unlock_bits'
p104
S'0x3F'
p105
ssS'upload'
p106
(dp107
S'speed'
p108
S'57600'
p109
sS'maximum_size'
p110
S'30720'
p111
sS'protocol'
p112
S'arduino'
p113
ssS'name'
p114
S'Arduino Duemilanove w/ ATmega328'
p115
sS'build'
p116
(dp117
S'core'
p118
S'arduino'
p119
sS'mcu'
p120
S'atmega328p'
p121
sS'f_cpu'
p122
S'16000000L'
p123
sS'variant'
p124
S'standard'
p125
ssaa(lp126
S'diecimila'
p127
a(dp128
S'bootloader'
p129
(dp130
S'extended_fuses'
p131
S'0x00'
p132
sS'high_fuses'
p133
S'0xdd'
p134
sS'low_fuses'
p135
S'0xff'
p136
sS'lock_bits'
p137
S'0x0F'
p138
sS'file'
p139
S'ATmegaBOOT_168_diecimila.hex'
p140
sS'path'
p141
S'atmega'
p142
sS'unlock_bits'
p143
S'0x3F'
p144
ssS'upload'
p145
(dp146
S'speed'
p147
S'19200'
p148
sS'maximum_size'
p149
S'14336'
p150
sS'protocol'
p151
S'arduino'
p152
ssS'name'
p153
S'Arduino Diecimila or Duemilanove w/ ATmega168'
p154
sS'build'
p155
(dp156
S'core'
p157
S'arduino'
p158
sS'mcu'
p159
S'atmega168'
p160
sS'f_cpu'
p161
S'16000000L'
p162
sS'variant'
p163
S'standard'
p164
ssaa(lp165
S'nano328'
p166
a(dp167
S'bootloader'
p168
(dp169
S'extended_fuses'
p170
S'0x05'
p171
sS'high_fuses'
p172
S'0xDA'
p173
sS'low_fuses'
p174
S'0xFF'
p175
sS'lock_bits'
p176
S'0x0F'
p177
sS'file'
p178
S'ATmegaBOOT_168_atmega328.hex'
p179
sS'path'
p180
S'atmega'
p181
sS'unlock_bits'
p182
S'0x3F'
p183
ssS'upload'
p184
(dp185
S'speed'
p186
S'57600'
p187
sS'maximum_size'
p188
S'30720'
p189
sS'protocol'
p190
S'arduino'
p191
ssS'name'
p192
S'Arduino Nano w/ ATmega328'
p193
sS'build'
p194
(dp195
S'core'
p196
S'arduino'
p197
sS'mcu'
p198
S'atmega328p'
p199
sS'f_cpu'
p200
S'16000000L'
p201
sS'variant'
p202
S'eightanaloginputs'
p203
ssaa(lp204
S'nano'
p205
a(dp206
S'bootloader'
p207
(dp208
S'extended_fuses'
p209
S'0x00'
p210
sS'high_fuses'
p211
S'0xdd'
p212
sS'low_fuses'
p213
S'0xff'
p214
sS'lock_bits'
p215
S'0x0F'
p216
sS'file'
p217
S'ATmegaBOOT_168_diecimila.hex'
p218
sS'path'
p219
S'atmega'
p220
sS'unlock_bits'
p221
S'0x3F'
p222
ssS'upload'
p223
(dp224
S'speed'
p225
S'19200'
p226
sS'maximum_size'
p227
S'14336'
p228
sS'protocol'
p229
S'arduino'
p230
ssS'name'
p231
S'Arduino Nano w/ ATmega168'
p232
sS'build'
p233
(dp234
S'core'
p235
S'arduino'
p236
sS'mcu'
p237
S'atmega168'
p238
sS'f_cpu'
p239
S'16000000L'
p240
sS'variant'
p241
S'eightanaloginputs'
p242
ssaa(lp243
S'mega2560'
p244
a(dp245
S'bootloader'
p246
(dp247
S'extended_fuses'
p248
S'0xFD'
p249
sS'high_fuses'
p250
S'0xD8'
p251
sS'low_fuses'
p252
S'0xFF'
p253
sS'lock_bits'
p254
S'0x0F'
p255
sS'file'
p256
S'stk500boot_v2_mega2560.hex'
p257
sS'path'
p258
S'stk500v2'
p259
sS'unlock_bits'
p260
S'0x3F'
p261
ssS'upload'
p262
(dp263
S'speed'
p264
S'115200'
p265
sS'maximum_size'
p266
S'258048'
p267
sS'protocol'
p268
S'stk500v2'
p269
ssS'name'
p270
S'Arduino Mega 2560 or Mega ADK'
p271
sS'build'
p272
(dp273
S'core'
p274
S'arduino'
p275
sS'mcu'
p276
S'atmega2560'
p277
sS'f_cpu'
p278
S'16000000L'
p279
sS'variant'
p280
S'mega'
p281
ssaa(lp282
S'mega'
p283
a(dp284
S'bootloader'
p285
(dp286
S'extended_fuses'
p287
S'0xF5'
p288
sS'high_fuses'
p289
S'0xDA'
p290
sS'low_fuses'
p291
S'0xFF'
p292
sS'lock_bits'
p293
S'0x0F'
p294
sS'file'
p295
S'ATmegaBOOT_168_atmega1280.hex'
p296
sS'path'
p297
S'atmega'
p298
sS'unlock_bits'
p299
S'0x3F'
p300
ssS'upload'
p301
(dp302
S'speed'
p303
S'57600'
p304
sS'maximum_size'
p305
S'126976'
p306
sS'protocol'
p307
S'arduino'
p308
ssS'name'
p309
S'Arduino Mega (ATmega1280)'
p310
sS'build'
p311
(dp312
S'core'
p313
S'arduino'
p314
sS'mcu'
p315
S'atmega1280'
p316
sS'f_cpu'
p317
S'16000000L'
p318
sS'variant'
p319
S'mega'
p320
ssaa(lp321
S'mini328'
p322
a(dp323
S'bootloader'
p324
(dp325
S'extended_fuses'
p326
S'0x05'
p327
sS'high_fuses'
p328
S'0xd8'
p329
sS'low_fuses'
p330
S'0xff'
p331
sS'lock_bits'
p332
S'0x0F'
p333
sS'file'
p334
S'optiboot_atmega328-Mini.hex'
p335
sS'path'
p336
S'optiboot'
p337
sS'unlock_bits'
p338
S'0x3F'
p339
ssS'upload'
p340
(dp341
S'speed'
p342
S'115200'
p343
sS'maximum_size'
p344
S'28672'
p345
sS'protocol'
p346
S'stk500'
p347
ssS'name'
p348
S'Arduino Mini w/ ATmega328'
p349
sS'build'
p350
(dp351
S'core'
p352
S'arduino'
p353
sS'mcu'
p354
S'atmega328p'
p355
sS'f_cpu'
p356
S'16000000L'
p357
sS'variant'
p358
S'eightanaloginputs'
p359
ssaa(lp360
S'mini'
p361
a(dp362
S'bootloader'
p363
(dp364
S'extended_fuses'
p365
S'0x00'
p366
sS'high_fuses'
p367
S'0xdd'
p368
sS'low_fuses'
p369
S'0xff'
p370
sS'lock_bits'
p371
S'0x0F'
p372
sS'file'
p373
S'ATmegaBOOT_168_ng.hex'
p374
sS'path'
p375
S'atmega'
p376
sS'unlock_bits'
p377
S'0x3F'
p378
ssS'upload'
p379
(dp380
S'speed'
p381
S'19200'
p382
sS'maximum_size'
p383
S'14336'
p384
sS'protocol'
p385
S'arduino'
p386
ssS'name'
p387
S'Arduino Mini w/ ATmega168'
p388
sS'build'
p389
(dp390
S'core'
p391
S'arduino'
p392
sS'mcu'
p393
S'atmega168'
p394
sS'f_cpu'
p395
S'16000000L'
p396
sS'variant'
p397
S'eightanaloginputs'
p398
ssaa(lp399
S'ethernet'
p400
a(dp401
S'bootloader'
p402
(dp403
S'extended_fuses'
p404
S'0x05'
p405
sS'high_fuses'
p406
S'0xde'
p407
sS'low_fuses'
p408
S'0xff'
p409
sS'lock_bits'
p410
S'0x0F'
p411
sS'file'
p412
S'optiboot_atmega328.hex'
p413
sS'path'
p414
S'optiboot'
p415
sS'unlock_bits'
p416
S'0x3F'
p417
ssS'upload'
p418
(dp419
S'speed'
p420
S'115200'
p421
sS'maximum_size'
p422
S'32256'
p423
sS'protocol'
p424
S'arduino'
p425
ssS'name'
p426
S'Arduino Ethernet'
p427
sS'build'
p428
(dp429
S'f_cpu'
p430
S'16000000L'
p431
sS'mcu'
p432
S'atmega328p'
p433
sS'variant'
p434
S'standard'
p435
sS'core'
p436
S'arduino'
p437
ssaa(lp438
S'fio'
p439
a(dp440
S'bootloader'
p441
(dp442
S'extended_fuses'
p443
S'0x05'
p444
sS'high_fuses'
p445
S'0xDA'
p446
sS'low_fuses'
p447
S'0xFF'
p448
sS'lock_bits'
p449
S'0x0F'
p450
sS'file'
p451
S'ATmegaBOOT_168_atmega328_pro_8MHz.hex'
p452
sS'path'
p453
S'arduino:atmega'
p454
sS'unlock_bits'
p455
S'0x3F'
p456
ssS'upload'
p457
(dp458
S'speed'
p459
S'57600'
p460
sS'maximum_size'
p461
S'30720'
p462
sS'protocol'
p463
S'arduino'
p464
ssS'name'
p465
S'Arduino Fio'
p466
sS'build'
p467
(dp468
S'core'
p469
S'arduino'
p470
sS'mcu'
p471
S'atmega328p'
p472
sS'f_cpu'
p473
S'8000000L'
p474
sS'variant'
p475
S'eightanaloginputs'
p476
ssaa(lp477
S'bt328'
p478
a(dp479
S'bootloader'
p480
(dp481
S'extended_fuses'
p482
S'0x05'
p483
sS'high_fuses'
p484
S'0xd8'
p485
sS'low_fuses'
p486
S'0xff'
p487
sS'lock_bits'
p488
S'0x0F'
p489
sS'file'
p490
S'ATmegaBOOT_168_atmega328_bt.hex'
p491
sS'path'
p492
S'bt'
p493
sS'unlock_bits'
p494
S'0x3F'
p495
ssS'upload'
p496
(dp497
S'speed'
p498
S'19200'
p499
sS'maximum_size'
p500
S'28672'
p501
sS'protocol'
p502
S'arduino'
p503
sS'disable_flushing'
p504
S'true'
p505
ssS'name'
p506
S'Arduino BT w/ ATmega328'
p507
sS'build'
p508
(dp509
S'core'
p510
S'arduino'
p511
sS'mcu'
p512
S'atmega328p'
p513
sS'f_cpu'
p514
S'16000000L'
p515
sS'variant'
p516
S'eightanaloginputs'
p517
ssaa(lp518
S'bt'
p519
a(dp520
S'bootloader'
p521
(dp522
S'extended_fuses'
p523
S'0x00'
p524
sS'high_fuses'
p525
S'0xdd'
p526
sS'low_fuses'
p527
S'0xff'
p528
sS'lock_bits'
p529
S'0x0F'
p530
sS'file'
p531
S'ATmegaBOOT_168.hex'
p532
sS'path'
p533
S'bt'
p534
sS'unlock_bits'
p535
S'0x3F'
p536
ssS'upload'
p537
(dp538
S'speed'
p539
S'19200'
p540
sS'maximum_size'
p541
S'14336'
p542
sS'protocol'
p543
S'arduino'
p544
sS'disable_flushing'
p545
S'true'
p546
ssS'name'
p547
S'Arduino BT w/ ATmega168'
p548
sS'build'
p549
(dp550
S'core'
p551
S'arduino'
p552
sS'mcu'
p553
S'atmega168'
p554
sS'f_cpu'
p555
S'16000000L'
p556
sS'variant'
p557
S'eightanaloginputs'
p558
ssaa(lp559
S'lilypad328'
p560
a(dp561
S'bootloader'
p562
(dp563
S'extended_fuses'
p564
S'0x05'
p565
sS'high_fuses'
p566
S'0xDA'
p567
sS'low_fuses'
p568
S'0xFF'
p569
sS'lock_bits'
p570
S'0x0F'
p571
sS'file'
p572
S'ATmegaBOOT_168_atmega328_pro_8MHz.hex'
p573
sS'path'
p574
S'atmega'
p575
sS'unlock_bits'
p576
S'0x3F'
p577
ssS'upload'
p578
(dp579
S'speed'
p580
S'57600'
p581
sS'maximum_size'
p582
S'30720'
p583
sS'protocol'
p584
S'arduino'
p585
ssS'name'
p586
S'LilyPad Arduino w/ ATmega328'
p587
sS'build'
p588
(dp589
S'core'
p590
S'arduino'
p591
sS'mcu'
p592
S'atmega328p'
p593
sS'f_cpu'
p594
S'8000000L'
p595
sS'variant'
p596
S'standard'
p597
ssaa(lp598
S'lilypad'
p599
a(dp600
S'bootloader'
p601
(dp602
S'extended_fuses'
p603
S'0x00'
p604
sS'high_fuses'
p605
S'0xdd'
p606
sS'low_fuses'
p607
S'0xe2'
p608
sS'lock_bits'
p609
S'0x0F'
p610
sS'file'
p611
S'LilyPadBOOT_168.hex'
p612
sS'path'
p613
S'lilypad'
p614
sS'unlock_bits'
p615
S'0x3F'
p616
ssS'upload'
p617
(dp618
S'speed'
p619
S'19200'
p620
sS'maximum_size'
p621
S'14336'
p622
sS'protocol'
p623
S'arduino'
p624
ssS'name'
p625
S'LilyPad Arduino w/ ATmega168'
p626
sS'build'
p627
(dp628
S'core'
p629
S'arduino'
p630
sS'mcu'
p631
S'atmega168'
p632
sS'f_cpu'
p633
S'8000000L'
p634
sS'variant'
p635
S'standard'
p636
ssaa(lp637
S'pro5v328'
p638
a(dp639
S'bootloader'
p640
(dp641
S'extended_fuses'
p642
S'0x05'
p643
sS'high_fuses'
p644
S'0xDA'
p645
sS'low_fuses'
p646
S'0xFF'
p647
sS'lock_bits'
p648
S'0x0F'
p649
sS'file'
p650
S'ATmegaBOOT_168_atmega328.hex'
p651
sS'path'
p652
S'atmega'
p653
sS'unlock_bits'
p654
S'0x3F'
p655
ssS'upload'
p656
(dp657
S'speed'
p658
S'57600'
p659
sS'maximum_size'
p660
S'30720'
p661
sS'protocol'
p662
S'arduino'
p663
ssS'name'
p664
S'Arduino Pro or Pro Mini (5V, 16 MHz) w/ ATmega328'
p665
sS'build'
p666
(dp667
S'core'
p668
S'arduino'
p669
sS'mcu'
p670
S'atmega328p'
p671
sS'f_cpu'
p672
S'16000000L'
p673
sS'variant'
p674
S'standard'
p675
ssaa(lp676
S'pro5v'
p677
a(dp678
S'bootloader'
p679
(dp680
S'extended_fuses'
p681
S'0x00'
p682
sS'high_fuses'
p683
S'0xdd'
p684
sS'low_fuses'
p685
S'0xff'
p686
sS'lock_bits'
p687
S'0x0F'
p688
sS'file'
p689
S'ATmegaBOOT_168_diecimila.hex'
p690
sS'path'
p691
S'atmega'
p692
sS'unlock_bits'
p693
S'0x3F'
p694
ssS'upload'
p695
(dp696
S'speed'
p697
S'19200'
p698
sS'maximum_size'
p699
S'14336'
p700
sS'protocol'
p701
S'arduino'
p702
ssS'name'
p703
S'Arduino Pro or Pro Mini (5V, 16 MHz) w/ ATmega168'
p704
sS'build'
p705
(dp706
S'core'
p707
S'arduino'
p708
sS'mcu'
p709
S'atmega168'
p710
sS'f_cpu'
p711
S'16000000L'
p712
sS'variant'
p713
S'standard'
p714
ssaa(lp715
S'pro328'
p716
a(dp717
S'bootloader'
p718
(dp719
S'extended_fuses'
p720
S'0x05'
p721
sS'high_fuses'
p722
S'0xDA'
p723
sS'low_fuses'
p724
S'0xFF'
p725
sS'lock_bits'
p726
S'0x0F'
p727
sS'file'
p728
S'ATmegaBOOT_168_atmega328_pro_8MHz.hex'
p729
sS'path'
p730
S'atmega'
p731
sS'unlock_bits'
p732
S'0x3F'
p733
ssS'upload'
p734
(dp735
S'speed'
p736
S'57600'
p737
sS'maximum_size'
p738
S'30720'
p739
sS'protocol'
p740
S'arduino'
p741
ssS'name'
p742
S'Arduino Pro or Pro Mini (3.3V, 8 MHz) w/ ATmega328'
p743
sS'build'
p744
(dp745
S'core'
p746
S'arduino'
p747
sS'mcu'
p748
S'atmega328p'
p749
sS'f_cpu'
p750
S'8000000L'
p751
sS'variant'
p752
S'standard'
p753
ssaa(lp754
S'pro'
p755
a(dp756
S'bootloader'
p757
(dp758
S'extended_fuses'
p759
S'0x00'
p760
sS'high_fuses'
p761
S'0xdd'
p762
sS'low_fuses'
p763
S'0xc6'
p764
sS'lock_bits'
p765
S'0x0F'
p766
sS'file'
p767
S'ATmegaBOOT_168_pro_8MHz.hex'
p768
sS'path'
p769
S'atmega'
p770
sS'unlock_bits'
p771
S'0x3F'
p772
ssS'upload'
p773
(dp774
S'speed'
p775
S'19200'
p776
sS'maximum_size'
p777
S'14336'
p778
sS'protocol'
p779
S'arduino'
p780
ssS'name'
p781
S'Arduino Pro or Pro Mini (3.3V, 8 MHz) w/ ATmega168'
p782
sS'build'
p783
(dp784
S'core'
p785
S'arduino'
p786
sS'mcu'
p787
S'atmega168'
p788
sS'f_cpu'
p789
S'8000000L'
p790
sS'variant'
p791
S'standard'
p792
ssaa(lp793
S'atmega168'
p794
a(dp795
S'bootloader'
p796
(dp797
S'extended_fuses'
p798
S'0x00'
p799
sS'high_fuses'
p800
S'0xdd'
p801
sS'low_fuses'
p802
S'0xff'
p803
sS'lock_bits'
p804
S'0x0F'
p805
sS'file'
p806
S'ATmegaBOOT_168_ng.hex'
p807
sS'path'
p808
S'atmega'
p809
sS'unlock_bits'
p810
S'0x3F'
p811
ssS'upload'
p812
(dp813
S'speed'
p814
S'19200'
p815
sS'maximum_size'
p816
S'14336'
p817
sS'protocol'
p818
S'arduino'
p819
ssS'name'
p820
S'Arduino NG or older w/ ATmega168'
p821
sS'build'
p822
(dp823
S'core'
p824
S'arduino'
p825
sS'mcu'
p826
S'atmega168'
p827
sS'f_cpu'
p828
S'16000000L'
p829
sS'variant'
p830
S'standard'
p831
ssaa(lp832
S'atmega8'
p833
a(dp834
S'bootloader'
p835
(dp836
S'high_fuses'
p837
S'0xca'
p838
sS'low_fuses'
p839
S'0xdf'
p840
sS'lock_bits'
p841
S'0x0F'
p842
sS'file'
p843
S'ATmegaBOOT.hex'
p844
sS'path'
p845
S'atmega8'
p846
sS'unlock_bits'
p847
S'0x3F'
p848
ssS'upload'
p849
(dp850
S'speed'
p851
S'19200'
p852
sS'maximum_size'
p853
S'7168'
p854
sS'protocol'
p855
S'arduino'
p856
ssS'name'
p857
S'Arduino NG or older w/ ATmega8'
p858
sS'build'
p859
(dp860
S'core'
p861
S'arduino'
p862
sS'mcu'
p863
S'atmega8'
p864
sS'f_cpu'
p865
S'16000000L'
p866
sS'variant'
p867
S'standard'
p868
ssaatp869
Rp870
(dp871
S'default'
p872
S'uno'
p873
sbtp874
a(S'used_libs'
p875
(lp876
S'/Applications/Arduino.app/Contents/Resources/Java/hardware/arduino/cores/arduino'
p877
atp878
a(S'build_dir'
p879
S'.build/mega2560'
p880
tp881
a(S'cxx'
p882
S'/Applications/Arduino.app/Contents/Resources/Java/hardware/tools/avr/bin/avr-g++'
p883
tp884
a(S'cflags'
p885
g2
(g3
g4
(lp886
g8
aS'-ffunction-sections'
p887
aS'-fdata-sections'
p888
aS'-g'
p889
ag6
aS'-w'
p890
aS'-DF_CPU=16000000L'
p891
aS'-DARDUINO=100'
p892
aS'-I/Applications/Arduino.app/Contents/Resources/Java/hardware/arduino/cores/arduino'
p893
aS'-I/Applications/Arduino.app/Contents/Resources/Java/hardware/arduino/variants/mega'
p894
aS'-I/Applications/Arduino.app/Contents/Resources/Java/hardware/arduino/cores/arduino'
p895
atp896
Rp897
tp898
a(S'cxxflags'
p899
g2
(g3
g4
(lp900
S'-fno-exceptions'
p901
atp902
Rp903
tp904
a(S'arduino_variants_dir'
p905
S'/Applications/Arduino.app/Contents/Resources/Java/hardware/arduino/variants'
p906
tp907
a(S'serial'
p908
S'/usr/local/bin/picocom'
p909
tp910
a(S'stty'
p911
S'/bin/stty'
p912
tp913
a(S'version.txt'
p914
S'/Applications/Arduino.app/Contents/Resources/Java/lib/version.txt'
p915
tp916
a(S'arduino_core_dir'
p917
g877
tp918
a(S'boards.txt'
p919
S'/Applications/Arduino.app/Contents/Resources/Java/hardware/arduino/boards.txt'
p920
tp921
a(S'avrdude.conf'
p922
S'/Applications/Arduino.app/Contents/Resources/Java/hardware/tools/avr/etc/avrdude.conf'
p923
tp924
a(S'deps'
p925
g2
(g3
g4
(lp926
S'.build/mega2560/src/dependencies.d'
p927
aS'.build/mega2560/arduino/dependencies.d'
p928
atp929
Rp930
tp931
a.